target datalayout = "e-m:e-p270:32:32-p271:32:32-p272:64:64-i64:64-i128:128-f80:128-n8:16:32:64-S128"
target triple = "x86_64-pc-linux-gnu"

%struct.Aig_Obj_t_ = type { %union.anon, ptr, ptr, i64, i32, i32, %union.anon.0 }
%union.anon = type { ptr }
%union.anon.0 = type { ptr }

; Function Attrs: nounwind uwtable
define i32 @Dch_NodesAreEqualCex(ptr noundef %0, ptr noundef %1, ptr noundef %2) #0 {
  %4 = alloca ptr, align 8
  %5 = alloca ptr, align 8
  %6 = alloca ptr, align 8
  store ptr %0, ptr %4, align 8, !tbaa !3
  store ptr %1, ptr %5, align 8, !tbaa !7
  store ptr %2, ptr %6, align 8, !tbaa !7
  %7 = load ptr, ptr %5, align 8, !tbaa !7
  %8 = getelementptr inbounds nuw %struct.Aig_Obj_t_, ptr %7, i32 0, i32 3
  %9 = load i64, ptr %8, align 8
  %10 = lshr i64 %9, 3
  %11 = and i64 %10, 1
  %12 = trunc i64 %11 to i32
  %13 = load ptr, ptr %6, align 8, !tbaa !7
  %14 = getelementptr inbounds nuw %struct.Aig_Obj_t_, ptr %13, i32 0, i32 3
  %15 = load i64, ptr %14, align 8
  %16 = lshr i64 %15, 3
  %17 = and i64 %16, 1
  %18 = trunc i64 %17 to i32
  %19 = icmp eq i32 %12, %18
  %20 = zext i1 %19 to i32
  %21 = load ptr, ptr %5, align 8, !tbaa !7
  %22 = getelementptr inbounds nuw %struct.Aig_Obj_t_, ptr %21, i32 0, i32 3
  %23 = load i64, ptr %22, align 8
  %24 = lshr i64 %23, 5
  %25 = and i64 %24, 1
  %26 = trunc i64 %25 to i32
  %27 = load ptr, ptr %6, align 8, !tbaa !7
  %28 = getelementptr inbounds nuw %struct.Aig_Obj_t_, ptr %27, i32 0, i32 3
  %29 = load i64, ptr %28, align 8
  %30 = lshr i64 %29, 5
  %31 = and i64 %30, 1
  %32 = trunc i64 %31 to i32
  %33 = icmp eq i32 %26, %32
  %34 = zext i1 %33 to i32
  %35 = icmp eq i32 %20, %34
  %36 = zext i1 %35 to i32
  ret i32 %36
}