; Function Attrs: mustprogress nofree norecurse nosync nounwind willreturn memory(argmem: read) uwtable
define range(i32 0, 2) i32 @Dch_NodesAreEqualCex(ptr readnone captures(none) %0, ptr noundef readonly captures(none) %1, ptr noundef readonly captures(none) %2) #0 {
  %4 = getelementptr inbounds nuw i8, ptr %1, i64 24
  %5 = load i64, ptr %4, align 8
  %6 = getelementptr inbounds nuw i8, ptr %2, i64 24
  %7 = load i64, ptr %6, align 8
  %8 = xor i64 %7, %5
  %9 = and i64 %8, 8
  %10 = icmp eq i64 %9, 0
  %11 = and i64 %8, 32
  %12 = icmp ne i64 %11, 0
  %13 = xor i1 %10, %12
  %14 = zext i1 %13 to i32
  ret i32 %14
}